target datalayout = "e-m:e-p270:32:32-p271:32:32-p272:64:64-i64:64-i128:128-f80:128-n8:16:32:64-S128"
target triple = "x86_64-pc-linux-gnu"

%struct.expert_field = type { i32, i32 }

@hf_hdr_name_value = internal global i32 0, align 4
@ei_wsp_oversized_uintvar = internal global %struct.expert_field zeroinitializer, align 4
@ei_wsp_header_invalid_value = internal global %struct.expert_field zeroinitializer, align 4
@hf_hdr_pragma = internal global i32 0, align 4
@.str.290 = private unnamed_addr constant [7 x i8] c"Pragma\00", align 1
@ett_pragma = internal global i32 0, align 4
@.str.1026 = private unnamed_addr constant [1 x i8] zeroinitializer, align 1
@.str.1040 = private unnamed_addr constant [9 x i8] c"no-cache\00", align 1

; Function Attrs: null_pointer_is_valid sspstrong uwtable
define internal i32 @wkh_pragma(ptr noundef %0, ptr noundef %1, i32 noundef %2, ptr noundef %3) #1 {
  %5 = alloca ptr, align 8
  %6 = alloca ptr, align 8
  %7 = alloca i32, align 4
  %8 = alloca ptr, align 8
  %9 = alloca i8, align 1
  %10 = alloca ptr, align 8
  %11 = alloca ptr, align 8
  %12 = alloca i32, align 4
  %13 = alloca i8, align 1
  %14 = alloca i32, align 4
  %15 = alloca i32, align 4
  %16 = alloca i32, align 4
  %17 = alloca i32, align 4
  %18 = alloca ptr, align 8
  store ptr %0, ptr %5, align 8
  store ptr %1, ptr %6, align 8
  store i32 %2, ptr %7, align 4
  store ptr %3, ptr %8, align 8
  call void @llvm.lifetime.start.p0(i64 1, ptr %9) #8
  store i8 0, ptr %9, align 1
  call void @llvm.lifetime.start.p0(i64 8, ptr %10) #8
  call void @llvm.lifetime.start.p0(i64 8, ptr %11) #8
  call void @llvm.lifetime.start.p0(i64 4, ptr %12) #8
  %19 = load i32, ptr %7, align 4
  %20 = add i32 %19, 1
  store i32 %20, ptr %12, align 4
  call void @llvm.lifetime.start.p0(i64 1, ptr %13) #8
  %21 = load ptr, ptr %6, align 8
  %22 = load i32, ptr %12, align 4
  %23 = call zeroext i8 @tvb_get_uint8(ptr noundef %21, i32 noundef %22)
  store i8 %23, ptr %13, align 1
  call void @llvm.lifetime.start.p0(i64 4, ptr %14) #8
  %24 = load i32, ptr %12, align 4
  store i32 %24, ptr %14, align 4
  call void @llvm.lifetime.start.p0(i64 4, ptr %15) #8
  call void @llvm.lifetime.start.p0(i64 4, ptr %16) #8
  call void @llvm.lifetime.start.p0(i64 4, ptr %17) #8
  call void @llvm.lifetime.start.p0(i64 8, ptr %18) #8
  store ptr null, ptr %18, align 8
  %25 = load ptr, ptr %5, align 8
  %26 = load ptr, ptr %6, align 8
  %27 = load i32, ptr %7, align 4
  %28 = load i32, ptr %14, align 4
  %29 = load i32, ptr %7, align 4
  %30 = sub i32 %28, %29
  %31 = load i32, ptr @ett_pragma, align 4
  %32 = call ptr @proto_tree_add_subtree(ptr noundef %25, ptr noundef %26, i32 noundef %27, i32 noundef %30, i32 noundef %31, ptr noundef %11, ptr noundef @.str.290)
  store ptr %32, ptr %10, align 8
  %33 = load ptr, ptr %10, align 8
  %34 = load i32, ptr @hf_hdr_name_value, align 4
  %35 = load ptr, ptr %6, align 8
  %36 = load i32, ptr %7, align 4
  %37 = call ptr @proto_tree_add_item(ptr noundef %33, i32 noundef %34, ptr noundef %35, i32 noundef %36, i32 noundef 1, i32 noundef 0)
  %38 = load i8, ptr %13, align 1
  %39 = zext i8 %38 to i32
  %40 = and i32 %39, 128
  %41 = icmp ne i32 %40, 0
  br i1 %41, label %42, label %58

42:                                               ; preds = %4
  %43 = load i32, ptr %14, align 4
  %44 = add i32 %43, 1
  store i32 %44, ptr %14, align 4
  %45 = load i8, ptr %13, align 1
  %46 = zext i8 %45 to i32
  %47 = icmp eq i32 %46, 128
  br i1 %47, label %48, label %57

48:                                               ; preds = %42
  %49 = load ptr, ptr %5, align 8
  %50 = load i32, ptr @hf_hdr_pragma, align 4
  %51 = load ptr, ptr %6, align 8
  %52 = load i32, ptr %7, align 4
  %53 = load i32, ptr %14, align 4
  %54 = load i32, ptr %7, align 4
  %55 = sub i32 %53, %54
  %56 = call ptr @proto_tree_add_string(ptr noundef %49, i32 noundef %50, ptr noundef %51, i32 noundef %52, i32 noundef %55, ptr noundef @.str.1040)
  store i8 1, ptr %9, align 1
  br label %57

57:                                               ; preds = %48, %42
  br label %117

58:                                               ; preds = %4
  %59 = load i8, ptr %13, align 1
  %60 = zext i8 %59 to i32
  %61 = icmp eq i32 %60, 0
  br i1 %61, label %66, label %62

62:                                               ; preds = %58
  %63 = load i8, ptr %13, align 1
  %64 = zext i8 %63 to i32
  %65 = icmp sge i32 %64, 32
  br i1 %65, label %66, label %74

66:                                               ; preds = %62, %58
  %67 = call ptr @wmem_packet_scope()
  %68 = load ptr, ptr %6, align 8
  %69 = load i32, ptr %12, align 4
  %70 = call ptr @tvb_get_stringz_enc(ptr noundef %67, ptr noundef %68, i32 noundef %69, ptr noundef %15, i32 noundef 0)
  %71 = load i32, ptr %12, align 4
  %72 = load i32, ptr %15, align 4
  %73 = add i32 %71, %72
  store i32 %73, ptr %14, align 4
  br label %116

74:                                               ; preds = %62
  %75 = load i8, ptr %13, align 1
  %76 = zext i8 %75 to i32
  %77 = icmp eq i32 %76, 31
  br i1 %77, label %78, label %86

78:                                               ; preds = %74
  %79 = load ptr, ptr %6, align 8
  %80 = load i32, ptr %12, align 4
  %81 = add i32 %80, 1
  %82 = load ptr, ptr %8, align 8
  %83 = call i32 @tvb_get_uintvar(ptr noundef %79, i32 noundef %81, ptr noundef %16, ptr noundef %82, ptr noundef @ei_wsp_oversized_uintvar)
  store i32 %83, ptr %15, align 4
  %84 = load i32, ptr %16, align 4
  %85 = add i32 %84, 1
  store i32 %85, ptr %16, align 4
  br label %91

86:                                               ; preds = %74
  %87 = load ptr, ptr %6, align 8
  %88 = load i32, ptr %14, align 4
  %89 = call zeroext i8 @tvb_get_uint8(ptr noundef %87, i32 noundef %88)
  %90 = zext i8 %89 to i32
  store i32 %90, ptr %15, align 4
  store i32 1, ptr %16, align 4
  br label %91

91:                                               ; preds = %86, %78
  %92 = load i32, ptr %16, align 4
  %93 = load i32, ptr %15, align 4
  %94 = add i32 %92, %93
  %95 = load i32, ptr %14, align 4
  %96 = add i32 %95, %94
  store i32 %96, ptr %14, align 4
  %97 = load i32, ptr %12, align 4
  %98 = load i32, ptr %16, align 4
  %99 = add i32 %97, %98
  store i32 %99, ptr %17, align 4
  %100 = load ptr, ptr %5, align 8
  %101 = load i32, ptr @hf_hdr_pragma, align 4
  %102 = load ptr, ptr %6, align 8
  %103 = load i32, ptr %7, align 4
  %104 = load i32, ptr %17, align 4
  %105 = load i32, ptr %7, align 4
  %106 = sub i32 %104, %105
  %107 = call ptr @proto_tree_add_string(ptr noundef %100, i32 noundef %101, ptr noundef %102, i32 noundef %103, i32 noundef %106, ptr noundef @.str.1026)
  store ptr %107, ptr %18, align 8
  %108 = load ptr, ptr %8, align 8
  %109 = load ptr, ptr %18, align 8
  %110 = load ptr, ptr %6, align 8
  %111 = load i32, ptr %17, align 4
  %112 = load i32, ptr %14, align 4
  %113 = load i32, ptr %17, align 4
  %114 = sub i32 %112, %113
  %115 = call i32 @parameter(ptr noundef null, ptr noundef %108, ptr noundef %109, ptr noundef %110, i32 noundef %111, i32 noundef %114)
  store i8 1, ptr %9, align 1
  br label %116

116:                                              ; preds = %91, %66
  br label %117

117:                                              ; preds = %116, %57
  %118 = load i8, ptr %9, align 1, !range !6, !noundef !7
  %119 = trunc i8 %118 to i1
  br i1 %119, label %124, label %120

120:                                              ; preds = %117
  %121 = load ptr, ptr %8, align 8
  %122 = load ptr, ptr %11, align 8
  %123 = call ptr @expert_add_info(ptr noundef %121, ptr noundef %122, ptr noundef @ei_wsp_header_invalid_value)
  br label %124

124:                                              ; preds = %120, %117
  %125 = load i32, ptr %14, align 4
  call void @llvm.lifetime.end.p0(i64 8, ptr %18) #8
  call void @llvm.lifetime.end.p0(i64 4, ptr %17) #8
  call void @llvm.lifetime.end.p0(i64 4, ptr %16) #8
  call void @llvm.lifetime.end.p0(i64 4, ptr %15) #8
  call void @llvm.lifetime.end.p0(i64 4, ptr %14) #8
  call void @llvm.lifetime.end.p0(i64 1, ptr %13) #8
  call void @llvm.lifetime.end.p0(i64 4, ptr %12) #8
  call void @llvm.lifetime.end.p0(i64 8, ptr %11) #8
  call void @llvm.lifetime.end.p0(i64 8, ptr %10) #8
  call void @llvm.lifetime.end.p0(i64 1, ptr %9) #8
  ret i32 %125
}