; Function Attrs: null_pointer_is_valid sspstrong uwtable
define internal i32 @wkh_pragma(ptr noundef %0, ptr noundef %1, i32 noundef %2, ptr noundef %3) #1 {
  %5 = alloca ptr, align 8
  %6 = alloca i32, align 4
  %7 = alloca i32, align 4
  call void @llvm.lifetime.start.p0(i64 8, ptr nonnull %5) #5
  %8 = add i32 %2, 1
  %9 = tail call zeroext i8 @tvb_get_uint8(ptr noundef %1, i32 noundef %8)
  call void @llvm.lifetime.start.p0(i64 4, ptr nonnull %6) #5
  call void @llvm.lifetime.start.p0(i64 4, ptr nonnull %7) #5
  %10 = load i32, ptr @ett_pragma, align 4
  %11 = call ptr @proto_tree_add_subtree(ptr noundef %0, ptr noundef %1, i32 noundef %2, i32 noundef 1, i32 noundef %10, ptr noundef nonnull %5, ptr noundef nonnull @.str.290)
  %12 = load i32, ptr @hf_hdr_name_value, align 4
  %13 = call ptr @proto_tree_add_item(ptr noundef %11, i32 noundef %12, ptr noundef %1, i32 noundef %2, i32 noundef 1, i32 noundef 0)
  %.not = icmp sgt i8 %9, -1
  br i1 %.not, label %20, label %14

14:                                               ; preds = %4
  %15 = add i32 %2, 2
  %16 = icmp eq i8 %9, -128
  br i1 %16, label %17, label %44

17:                                               ; preds = %14
  %18 = load i32, ptr @hf_hdr_pragma, align 4
  %19 = call ptr @proto_tree_add_string(ptr noundef %0, i32 noundef %18, ptr noundef %1, i32 noundef %2, i32 noundef 2, ptr noundef nonnull @.str.1040)
  br label %.thread

20:                                               ; preds = %4
  %21 = add nsw i8 %9, -32
  %or.cond = icmp ult i8 %21, -31
  br i1 %or.cond, label %22, label %27

22:                                               ; preds = %20
  %23 = call ptr @wmem_packet_scope()
  %24 = call ptr @tvb_get_stringz_enc(ptr noundef %23, ptr noundef %1, i32 noundef %8, ptr noundef nonnull %6, i32 noundef 0)
  %25 = load i32, ptr %6, align 4
  %26 = add i32 %25, %8
  br label %44

27:                                               ; preds = %20
  %28 = icmp eq i8 %9, 31
  br i1 %28, label %29, label %34

29:                                               ; preds = %27
  %30 = add i32 %2, 2
  %31 = call i32 @tvb_get_uintvar(ptr noundef %1, i32 noundef %30, ptr noundef nonnull %7, ptr noundef %3, ptr noundef nonnull @ei_wsp_oversized_uintvar)
  %32 = load i32, ptr %7, align 4
  %33 = add i32 %32, 1
  br label %37

34:                                               ; preds = %27
  %35 = call zeroext i8 @tvb_get_uint8(ptr noundef %1, i32 noundef %8)
  %36 = zext i8 %35 to i32
  br label %37

37:                                               ; preds = %34, %29
  %.sink = phi i32 [ %31, %29 ], [ %36, %34 ]
  %storemerge = phi i32 [ %33, %29 ], [ 1, %34 ]
  store i32 %.sink, ptr %6, align 4
  store i32 %storemerge, ptr %7, align 4
  %38 = add i32 %storemerge, %8
  %39 = add i32 %38, %.sink
  %40 = load i32, ptr @hf_hdr_pragma, align 4
  %41 = sub i32 %38, %2
  %42 = call ptr @proto_tree_add_string(ptr noundef %0, i32 noundef %40, ptr noundef %1, i32 noundef %2, i32 noundef %41, ptr noundef nonnull @.str.1026)
  %43 = call fastcc i32 @parameter(ptr noundef null, ptr noundef %3, ptr noundef %42, ptr noundef %1, i32 noundef %38, i32 noundef %.sink)
  br label %.thread

44:                                               ; preds = %14, %22
  %.048 = phi i32 [ %15, %14 ], [ %26, %22 ]
  %45 = load ptr, ptr %5, align 8
  %46 = call ptr @expert_add_info(ptr noundef %3, ptr noundef %45, ptr noundef nonnull @ei_wsp_header_invalid_value)
  br label %.thread

.thread:                                          ; preds = %37, %17, %44
  %.04852 = phi i32 [ %.048, %44 ], [ %39, %37 ], [ %15, %17 ]
  call void @llvm.lifetime.end.p0(i64 4, ptr nonnull %7) #5
  call void @llvm.lifetime.end.p0(i64 4, ptr nonnull %6) #5
  call void @llvm.lifetime.end.p0(i64 8, ptr nonnull %5) #5
  ret i32 %.04852
}